target datalayout = "e-m:e-p270:32:32-p271:32:32-p272:64:64-i64:64-i128:128-f80:128-n8:16:32:64-S128"
target triple = "x86_64-pc-linux-gnu"

%struct.pmix_class_t = type { ptr, ptr, ptr, ptr, i32, i32, ptr, ptr, i64 }
%struct.pmix_object_t = type { %union.pthread_mutex_t, ptr, i32, %struct.pmix_tma }
%union.pthread_mutex_t = type { %struct.__pthread_mutex_s }
%struct.__pthread_mutex_s = type { i32, i32, i32, i32, i32, i16, i16, %struct.__pthread_internal_list }
%struct.__pthread_internal_list = type { ptr, ptr }
%struct.pmix_tma = type { ptr, ptr, ptr, ptr, ptr, ptr, ptr, ptr }
%struct.timeval = type { i64, i64 }
%struct.prte_odls_launch_local_t = type { %struct.pmix_object_t, ptr, [256 x i8], ptr, i32 }
%struct.prte_timer_t = type { %struct.pmix_object_t, %struct.timeval, ptr, ptr }

@.str.79 = private unnamed_addr constant [21 x i8] c"pthread_mutex_lock()\00", align 1

; Function Attrs: inlinehint nounwind uwtable
define internal void @pmix_tma_free(ptr noundef %0, ptr noundef %1) #4 {
  %3 = alloca ptr, align 8
  %4 = alloca ptr, align 8
  store ptr %0, ptr %3, align 8, !tbaa !79
  store ptr %1, ptr %4, align 8, !tbaa !10
  %5 = load ptr, ptr %3, align 8, !tbaa !79
  %6 = icmp ne ptr null, %5
  br i1 %6, label %7, label %13

7:                                                ; preds = %2
  %8 = load ptr, ptr %3, align 8, !tbaa !79
  %9 = getelementptr inbounds nuw %struct.pmix_tma, ptr %8, i32 0, i32 5
  %10 = load ptr, ptr %9, align 8, !tbaa !147
  %11 = load ptr, ptr %3, align 8, !tbaa !79
  %12 = load ptr, ptr %4, align 8, !tbaa !10
  call void %10(ptr noundef %11, ptr noundef %12)
  br label %15

13:                                               ; preds = %2
  %14 = load ptr, ptr %4, align 8, !tbaa !10
  call void @free(ptr noundef %14) #13
  br label %15

15:                                               ; preds = %13, %7
  ret void
}

; Function Attrs: inlinehint nounwind uwtable
define internal void @pmix_obj_run_destructors(ptr noundef %0) #4 {
  %2 = alloca ptr, align 8
  %3 = alloca ptr, align 8
  store ptr %0, ptr %2, align 8, !tbaa !77
  call void @llvm.lifetime.start.p0(i64 8, ptr %3) #13
  %4 = load ptr, ptr %2, align 8, !tbaa !77
  %5 = getelementptr inbounds nuw %struct.pmix_object_t, ptr %4, i32 0, i32 1
  %6 = load ptr, ptr %5, align 8, !tbaa !68
  %7 = getelementptr inbounds nuw %struct.pmix_class_t, ptr %6, i32 0, i32 7
  %8 = load ptr, ptr %7, align 8, !tbaa !109
  store ptr %8, ptr %3, align 8, !tbaa !10
  br label %9

9:                                                ; preds = %13, %1
  %10 = load ptr, ptr %3, align 8, !tbaa !10
  %11 = load ptr, ptr %10, align 8, !tbaa !10
  %12 = icmp ne ptr null, %11
  br i1 %12, label %13, label %19

13:                                               ; preds = %9
  %14 = load ptr, ptr %3, align 8, !tbaa !10
  %15 = load ptr, ptr %14, align 8, !tbaa !10
  %16 = load ptr, ptr %2, align 8, !tbaa !77
  call void %15(ptr noundef %16)
  %17 = load ptr, ptr %3, align 8, !tbaa !10
  %18 = getelementptr inbounds nuw ptr, ptr %17, i32 1
  store ptr %18, ptr %3, align 8, !tbaa !10
  br label %9, !llvm.loop !110

19:                                               ; preds = %9
  call void @llvm.lifetime.end.p0(i64 8, ptr %3) #13
  ret void
}

; Function Attrs: alwaysinline nounwind uwtable
define internal i32 @pmix_obj_update(ptr noundef %0, i32 noundef %1) #6 {
  %3 = alloca ptr, align 8
  %4 = alloca i32, align 4
  %5 = alloca i32, align 4
  store ptr %0, ptr %3, align 8, !tbaa !77
  store i32 %1, ptr %4, align 4, !tbaa !31
  call void @llvm.lifetime.start.p0(i64 4, ptr %5) #13
  %6 = load ptr, ptr %3, align 8, !tbaa !77
  %7 = getelementptr inbounds nuw %struct.pmix_object_t, ptr %6, i32 0, i32 0
  %8 = call i32 @pthread_mutex_lock(ptr noundef %7) #13
  store i32 %8, ptr %5, align 4, !tbaa !31
  %9 = load i32, ptr %5, align 4, !tbaa !31
  %10 = icmp eq i32 %9, 35
  br i1 %10, label %11, label %14

11:                                               ; preds = %2
  %12 = load i32, ptr %5, align 4, !tbaa !31
  %13 = call ptr @__errno_location() #15
  store i32 %12, ptr %13, align 4, !tbaa !31
  call void @perror(ptr noundef @.str.79)
  call void @abort() #16
  unreachable

14:                                               ; preds = %2
  %15 = load i32, ptr %4, align 4, !tbaa !31
  %16 = load ptr, ptr %3, align 8, !tbaa !77
  %17 = getelementptr inbounds nuw %struct.pmix_object_t, ptr %16, i32 0, i32 2
  %18 = load i32, ptr %17, align 8, !tbaa !69
  %19 = add nsw i32 %18, %15
  store i32 %19, ptr %17, align 8, !tbaa !69
  store i32 %19, ptr %5, align 4, !tbaa !31
  %20 = load ptr, ptr %3, align 8, !tbaa !77
  %21 = getelementptr inbounds nuw %struct.pmix_object_t, ptr %20, i32 0, i32 0
  %22 = call i32 @pthread_mutex_unlock(ptr noundef %21) #13
  %23 = load i32, ptr %5, align 4, !tbaa !31
  call void @llvm.lifetime.end.p0(i64 4, ptr %5) #13
  ret i32 %23
}

; Function Attrs: inlinehint nounwind uwtable
define internal void @pmix_atomic_rmb() #4 {
  fence acquire
  ret void
}

; Function Attrs: nounwind uwtable
define internal void @timer_cb(i32 noundef %0, i16 noundef signext %1, ptr noundef %2) #0 {
  %4 = alloca i32, align 4
  %5 = alloca i16, align 2
  %6 = alloca ptr, align 8
  %7 = alloca ptr, align 8
  %8 = alloca ptr, align 8
  %9 = alloca ptr, align 8
  store i32 %0, ptr %4, align 4, !tbaa !31
  store i16 %1, ptr %5, align 2, !tbaa !150
  store ptr %2, ptr %6, align 8, !tbaa !10
  call void @llvm.lifetime.start.p0(i64 8, ptr %7) #13
  %10 = load ptr, ptr %6, align 8, !tbaa !10
  store ptr %10, ptr %7, align 8, !tbaa !10
  call void @llvm.lifetime.start.p0(i64 8, ptr %8) #13
  %11 = load ptr, ptr %7, align 8, !tbaa !10
  %12 = getelementptr inbounds nuw %struct.prte_timer_t, ptr %11, i32 0, i32 3
  %13 = load ptr, ptr %12, align 8, !tbaa !206
  store ptr %13, ptr %8, align 8, !tbaa !10
  call void @pmix_atomic_rmb()
  %14 = load ptr, ptr %8, align 8, !tbaa !10
  %15 = getelementptr inbounds nuw %struct.prte_odls_launch_local_t, ptr %14, i32 0, i32 4
  %16 = load i32, ptr %15, align 8, !tbaa !204
  %17 = add nsw i32 %16, 1
  store i32 %17, ptr %15, align 8, !tbaa !204
  %18 = load ptr, ptr %8, align 8, !tbaa !10
  %19 = getelementptr inbounds nuw %struct.prte_odls_launch_local_t, ptr %18, i32 0, i32 1
  %20 = load ptr, ptr %19, align 8, !tbaa !234
  call void @event_active(ptr noundef %20, i32 noundef 4, i16 noundef signext 1)
  br label %21

21:                                               ; preds = %3
  call void @llvm.lifetime.start.p0(i64 8, ptr %9) #13
  %22 = load ptr, ptr %7, align 8, !tbaa !10
  store ptr %22, ptr %9, align 8, !tbaa !77
  %23 = load ptr, ptr %9, align 8, !tbaa !77
  %24 = call i32 @pmix_obj_update(ptr noundef %23, i32 noundef -1)
  %25 = icmp eq i32 0, %24
  br i1 %25, label %26, label %40

26:                                               ; preds = %21
  %27 = load ptr, ptr %9, align 8, !tbaa !77
  call void @pmix_obj_run_destructors(ptr noundef %27)
  %28 = load ptr, ptr %9, align 8, !tbaa !77
  %29 = getelementptr inbounds nuw %struct.pmix_object_t, ptr %28, i32 0, i32 3
  %30 = getelementptr inbounds nuw %struct.pmix_tma, ptr %29, i32 0, i32 5
  %31 = load ptr, ptr %30, align 8, !tbaa !86
  %32 = icmp ne ptr null, %31
  br i1 %32, label %33, label %37

33:                                               ; preds = %26
  %34 = load ptr, ptr %9, align 8, !tbaa !77
  %35 = getelementptr inbounds nuw %struct.pmix_object_t, ptr %34, i32 0, i32 3
  %36 = load ptr, ptr %7, align 8, !tbaa !10
  call void @pmix_tma_free(ptr noundef %35, ptr noundef %36)
  br label %39

37:                                               ; preds = %26
  %38 = load ptr, ptr %7, align 8, !tbaa !10
  call void @free(ptr noundef %38) #13
  br label %39

39:                                               ; preds = %37, %33
  store ptr null, ptr %7, align 8, !tbaa !10
  br label %40

40:                                               ; preds = %39, %21
  call void @llvm.lifetime.end.p0(i64 8, ptr %9) #13
  br label %41

41:                                               ; preds = %40
  br label %42

42:                                               ; preds = %41
  call void @llvm.lifetime.end.p0(i64 8, ptr %8) #13
  call void @llvm.lifetime.end.p0(i64 8, ptr %7) #13
  ret void
}