; Function Attrs: nounwind uwtable
define internal void @timer_cb(i32 %0, i16 signext %1, ptr noundef %2) #0 {
  %4 = getelementptr inbounds nuw i8, ptr %2, i64 144
  %5 = load ptr, ptr %4, align 8, !tbaa !175
  fence acquire
  %6 = getelementptr inbounds nuw i8, ptr %5, i64 392
  %7 = load i32, ptr %6, align 8, !tbaa !173
  %8 = add nsw i32 %7, 1
  store i32 %8, ptr %6, align 8, !tbaa !173
  %9 = getelementptr inbounds nuw i8, ptr %5, i64 120
  %10 = load ptr, ptr %9, align 8, !tbaa !202
  tail call void @event_active(ptr noundef %10, i32 noundef 4, i16 noundef signext 1) #16
  %11 = tail call i32 @pthread_mutex_lock(ptr noundef %2) #16
  %12 = icmp eq i32 %11, 35
  br i1 %12, label %13, label %pmix_obj_update.exit

13:                                               ; preds = %3
  %14 = tail call ptr @__errno_location() #17
  store i32 35, ptr %14, align 4, !tbaa !52
  tail call void @perror(ptr noundef nonnull @.str.79) #18
  tail call void @abort() #19
  unreachable

pmix_obj_update.exit:                             ; preds = %3
  %15 = getelementptr inbounds nuw i8, ptr %2, i64 48
  %16 = load i32, ptr %15, align 8, !tbaa !66
  %17 = add nsw i32 %16, -1
  store i32 %17, ptr %15, align 8, !tbaa !66
  %18 = tail call i32 @pthread_mutex_unlock(ptr noundef nonnull %2) #16
  %19 = icmp eq i32 %17, 0
  br i1 %19, label %20, label %34

20:                                               ; preds = %pmix_obj_update.exit
  %21 = getelementptr inbounds nuw i8, ptr %2, i64 40
  %22 = load ptr, ptr %21, align 8, !tbaa !65
  %23 = getelementptr inbounds nuw i8, ptr %22, i64 48
  %24 = load ptr, ptr %23, align 8, !tbaa !75
  %25 = load ptr, ptr %24, align 8, !tbaa !31
  %.not6.i = icmp eq ptr %25, null
  br i1 %.not6.i, label %pmix_obj_run_destructors.exit, label %.lr.ph.i

.lr.ph.i:                                         ; preds = %20, %.lr.ph.i
  %26 = phi ptr [ %28, %.lr.ph.i ], [ %25, %20 ]
  %.07.i = phi ptr [ %27, %.lr.ph.i ], [ %24, %20 ]
  tail call void %26(ptr noundef nonnull %2) #16
  %27 = getelementptr inbounds nuw i8, ptr %.07.i, i64 8
  %28 = load ptr, ptr %27, align 8, !tbaa !31
  %.not.i = icmp eq ptr %28, null
  br i1 %.not.i, label %pmix_obj_run_destructors.exit, label %.lr.ph.i, !llvm.loop !76

pmix_obj_run_destructors.exit:                    ; preds = %.lr.ph.i, %20
  %29 = getelementptr inbounds nuw i8, ptr %2, i64 96
  %30 = load ptr, ptr %29, align 8, !tbaa !95
  %.not = icmp eq ptr %30, null
  br i1 %.not, label %33, label %31

31:                                               ; preds = %pmix_obj_run_destructors.exit
  %32 = getelementptr inbounds nuw i8, ptr %2, i64 56
  tail call void %30(ptr noundef nonnull %32, ptr noundef nonnull %2) #16
  br label %34

33:                                               ; preds = %pmix_obj_run_destructors.exit
  tail call void @free(ptr noundef nonnull %2) #16
  br label %34

34:                                               ; preds = %31, %33, %pmix_obj_update.exit
  ret void
}